target datalayout = "e-m:e-p270:32:32-p271:32:32-p272:64:64-i64:64-i128:128-f80:128-n8:16:32:64-S128"
target triple = "x86_64-pc-linux-gnu"

%struct.archive_entry = type { ptr, ptr, i32, %struct.aest, i32, %struct.archive_mstring, i64, i64, %struct.archive_mstring, %struct.archive_mstring, %struct.archive_mstring, %struct.archive_mstring, %struct.archive_mstring, i8, ptr, i64, %struct.ae_digest, %struct.archive_acl, ptr, ptr, ptr, ptr, ptr, [12 x i8], i32 }
%struct.aest = type { i64, i32, i64, i32, i64, i32, i64, i32, i64, i64, i32, i64, i64, i32, i64, i64, i64, i32, i64, i64, i64 }
%struct.archive_mstring = type { %struct.archive_string, %struct.archive_string, %struct.archive_wstring, %struct.archive_string, i32 }
%struct.archive_wstring = type { ptr, i64, i64 }
%struct.archive_string = type { ptr, i64, i64 }
%struct.ae_digest = type { [16 x i8], [20 x i8], [20 x i8], [32 x i8], [48 x i8], [64 x i8] }
%struct.archive_acl = type { i32, ptr, ptr, i32, ptr, ptr, i32 }

; Function Attrs: nounwind uwtable
define dso_local ptr @archive_entry_digest(ptr noundef %0, i32 noundef %1) #0 {
  %3 = alloca ptr, align 8
  %4 = alloca ptr, align 8
  %5 = alloca i32, align 4
  store ptr %0, ptr %4, align 8, !tbaa !4
  store i32 %1, ptr %5, align 4, !tbaa !32
  %6 = load i32, ptr %5, align 4, !tbaa !32
  switch i32 %6, label %37 [
    i32 1, label %7
    i32 2, label %12
    i32 3, label %17
    i32 4, label %22
    i32 5, label %27
    i32 6, label %32
  ]

7:                                                ; preds = %2
  %8 = load ptr, ptr %4, align 8, !tbaa !4
  %9 = getelementptr inbounds nuw %struct.archive_entry, ptr %8, i32 0, i32 16
  %10 = getelementptr inbounds nuw %struct.ae_digest, ptr %9, i32 0, i32 0
  %11 = getelementptr inbounds [16 x i8], ptr %10, i64 0, i64 0
  store ptr %11, ptr %3, align 8
  br label %38

12:                                               ; preds = %2
  %13 = load ptr, ptr %4, align 8, !tbaa !4
  %14 = getelementptr inbounds nuw %struct.archive_entry, ptr %13, i32 0, i32 16
  %15 = getelementptr inbounds nuw %struct.ae_digest, ptr %14, i32 0, i32 1
  %16 = getelementptr inbounds [20 x i8], ptr %15, i64 0, i64 0
  store ptr %16, ptr %3, align 8
  br label %38

17:                                               ; preds = %2
  %18 = load ptr, ptr %4, align 8, !tbaa !4
  %19 = getelementptr inbounds nuw %struct.archive_entry, ptr %18, i32 0, i32 16
  %20 = getelementptr inbounds nuw %struct.ae_digest, ptr %19, i32 0, i32 2
  %21 = getelementptr inbounds [20 x i8], ptr %20, i64 0, i64 0
  store ptr %21, ptr %3, align 8
  br label %38

22:                                               ; preds = %2
  %23 = load ptr, ptr %4, align 8, !tbaa !4
  %24 = getelementptr inbounds nuw %struct.archive_entry, ptr %23, i32 0, i32 16
  %25 = getelementptr inbounds nuw %struct.ae_digest, ptr %24, i32 0, i32 3
  %26 = getelementptr inbounds [32 x i8], ptr %25, i64 0, i64 0
  store ptr %26, ptr %3, align 8
  br label %38

27:                                               ; preds = %2
  %28 = load ptr, ptr %4, align 8, !tbaa !4
  %29 = getelementptr inbounds nuw %struct.archive_entry, ptr %28, i32 0, i32 16
  %30 = getelementptr inbounds nuw %struct.ae_digest, ptr %29, i32 0, i32 4
  %31 = getelementptr inbounds [48 x i8], ptr %30, i64 0, i64 0
  store ptr %31, ptr %3, align 8
  br label %38

32:                                               ; preds = %2
  %33 = load ptr, ptr %4, align 8, !tbaa !4
  %34 = getelementptr inbounds nuw %struct.archive_entry, ptr %33, i32 0, i32 16
  %35 = getelementptr inbounds nuw %struct.ae_digest, ptr %34, i32 0, i32 5
  %36 = getelementptr inbounds [64 x i8], ptr %35, i64 0, i64 0
  store ptr %36, ptr %3, align 8
  br label %38

37:                                               ; preds = %2
  store ptr null, ptr %3, align 8
  br label %38

38:                                               ; preds = %37, %32, %27, %22, %17, %12, %7
  %39 = load ptr, ptr %3, align 8
  ret ptr %39
}