; Function Attrs: mustprogress nofree norecurse nosync nounwind willreturn memory(none) uwtable
define dso_local ptr @archive_entry_digest(ptr noundef readnone %0, i32 noundef %1) local_unnamed_addr #17 {
  switch i32 %1, label %15 [
    i32 1, label %3
    i32 2, label %5
    i32 3, label %7
    i32 4, label %9
    i32 5, label %11
    i32 6, label %13
  ]

3:                                                ; preds = %2
  %4 = getelementptr inbounds nuw i8, ptr %0, i64 864
  br label %15

5:                                                ; preds = %2
  %6 = getelementptr inbounds nuw i8, ptr %0, i64 880
  br label %15

7:                                                ; preds = %2
  %8 = getelementptr inbounds nuw i8, ptr %0, i64 900
  br label %15

9:                                                ; preds = %2
  %10 = getelementptr inbounds nuw i8, ptr %0, i64 920
  br label %15

11:                                               ; preds = %2
  %12 = getelementptr inbounds nuw i8, ptr %0, i64 952
  br label %15

13:                                               ; preds = %2
  %14 = getelementptr inbounds nuw i8, ptr %0, i64 1000
  br label %15

15:                                               ; preds = %2, %13, %11, %9, %7, %5, %3
  %.0 = phi ptr [ %14, %13 ], [ %12, %11 ], [ %10, %9 ], [ %8, %7 ], [ %6, %5 ], [ %4, %3 ], [ null, %2 ]
  ret ptr %.0
}